target datalayout = "e-m:e-p270:32:32-p271:32:32-p272:64:64-i64:64-i128:128-f80:128-n8:16:32:64-S128"
target triple = "x86_64-pc-linux-gnu"

%struct.expert_field = type { i32, i32 }

@hf_openflow_v5_instruction_type = internal global i32 0, align 4
@hf_openflow_v5_instruction_length = internal global i32 0, align 4
@hf_openflow_v5_instruction_experimenter_experimenter = internal global i32 0, align 4
@hf_openflow_v5_instruction_goto_table_table_id = internal global i32 0, align 4
@hf_openflow_v5_instruction_goto_table_pad = internal global i32 0, align 4
@hf_openflow_v5_instruction_write_metadata_pad = internal global i32 0, align 4
@hf_openflow_v5_instruction_write_metadata_value = internal global i32 0, align 4
@hf_openflow_v5_instruction_write_metadata_mask = internal global i32 0, align 4
@hf_openflow_v5_instruction_actions_pad = internal global i32 0, align 4
@hf_openflow_v5_instruction_meter_meter_id = internal global i32 0, align 4
@ett_openflow_v5_instruction = internal global i32 0, align 4
@ei_openflow_v5_instruction_undecoded = internal global %struct.expert_field zeroinitializer, align 4
@.str.959 = private unnamed_addr constant [26 x i8] c"Unknown instruction body.\00", align 1
@ei_openflow_v5_length_too_short = internal global %struct.expert_field zeroinitializer, align 4
@.str.1460 = private unnamed_addr constant [12 x i8] c"Instruction\00", align 1
@.str.1461 = private unnamed_addr constant [31 x i8] c"Experimenter instruction body.\00", align 1

; Function Attrs: null_pointer_is_valid sspstrong uwtable
define internal i32 @dissect_openflow_instruction_header_v5(ptr noundef %0, ptr noundef %1, ptr noundef %2, i32 noundef %3, i16 noundef zeroext %4) #0 {
  %6 = alloca ptr, align 8
  %7 = alloca ptr, align 8
  %8 = alloca ptr, align 8
  %9 = alloca i32, align 4
  %10 = alloca i16, align 2
  %11 = alloca i16, align 2
  store ptr %0, ptr %6, align 8
  store ptr %1, ptr %7, align 8
  store ptr %2, ptr %8, align 8
  store i32 %3, ptr %9, align 4
  store i16 %4, ptr %10, align 2
  call void @llvm.lifetime.start.p0(i64 2, ptr %11) #5
  %12 = load ptr, ptr %6, align 8
  %13 = load i32, ptr %9, align 4
  %14 = call zeroext i16 @tvb_get_ntohs(ptr noundef %12, i32 noundef %13)
  store i16 %14, ptr %11, align 2
  %15 = load ptr, ptr %8, align 8
  %16 = load i32, ptr @hf_openflow_v5_instruction_type, align 4
  %17 = load ptr, ptr %6, align 8
  %18 = load i32, ptr %9, align 4
  %19 = call ptr @proto_tree_add_item(ptr noundef %15, i32 noundef %16, ptr noundef %17, i32 noundef %18, i32 noundef 2, i32 noundef 0)
  %20 = load i32, ptr %9, align 4
  %21 = add i32 %20, 2
  store i32 %21, ptr %9, align 4
  %22 = load ptr, ptr %8, align 8
  %23 = load i32, ptr @hf_openflow_v5_instruction_length, align 4
  %24 = load ptr, ptr %6, align 8
  %25 = load i32, ptr %9, align 4
  %26 = call ptr @proto_tree_add_item(ptr noundef %22, i32 noundef %23, ptr noundef %24, i32 noundef %25, i32 noundef 2, i32 noundef 0)
  %27 = load i32, ptr %9, align 4
  %28 = add i32 %27, 2
  store i32 %28, ptr %9, align 4
  %29 = load i16, ptr %11, align 2
  %30 = zext i16 %29 to i32
  %31 = icmp eq i32 %30, 65535
  br i1 %31, label %32, label %40

32:                                               ; preds = %5
  %33 = load ptr, ptr %8, align 8
  %34 = load i32, ptr @hf_openflow_v5_instruction_experimenter_experimenter, align 4
  %35 = load ptr, ptr %6, align 8
  %36 = load i32, ptr %9, align 4
  %37 = call ptr @proto_tree_add_item(ptr noundef %33, i32 noundef %34, ptr noundef %35, i32 noundef %36, i32 noundef 4, i32 noundef 0)
  %38 = load i32, ptr %9, align 4
  %39 = add i32 %38, 4
  store i32 %39, ptr %9, align 4
  br label %40

40:                                               ; preds = %32, %5
  %41 = load i32, ptr %9, align 4
  call void @llvm.lifetime.end.p0(i64 2, ptr %11) #5
  ret i32 %41
}

; Function Attrs: null_pointer_is_valid sspstrong uwtable
define internal i32 @dissect_openflow_instruction_v5(ptr noundef %0, ptr noundef %1, ptr noundef %2, i32 noundef %3, i16 noundef zeroext %4) #0 {
  %6 = alloca ptr, align 8
  %7 = alloca ptr, align 8
  %8 = alloca ptr, align 8
  %9 = alloca i32, align 4
  %10 = alloca i16, align 2
  %11 = alloca ptr, align 8
  %12 = alloca i16, align 2
  %13 = alloca i16, align 2
  %14 = alloca i32, align 4
  store ptr %0, ptr %6, align 8
  store ptr %1, ptr %7, align 8
  store ptr %2, ptr %8, align 8
  store i32 %3, ptr %9, align 4
  store i16 %4, ptr %10, align 2
  call void @llvm.lifetime.start.p0(i64 8, ptr %11) #5
  call void @llvm.lifetime.start.p0(i64 2, ptr %12) #5
  call void @llvm.lifetime.start.p0(i64 2, ptr %13) #5
  call void @llvm.lifetime.start.p0(i64 4, ptr %14) #5
  %15 = load ptr, ptr %6, align 8
  %16 = load i32, ptr %9, align 4
  %17 = call zeroext i16 @tvb_get_ntohs(ptr noundef %15, i32 noundef %16)
  store i16 %17, ptr %12, align 2
  %18 = load ptr, ptr %6, align 8
  %19 = load i32, ptr %9, align 4
  %20 = add i32 %19, 2
  %21 = call zeroext i16 @tvb_get_ntohs(ptr noundef %18, i32 noundef %20)
  store i16 %21, ptr %13, align 2
  %22 = load ptr, ptr %8, align 8
  %23 = load ptr, ptr %6, align 8
  %24 = load i32, ptr %9, align 4
  %25 = load i16, ptr %13, align 2
  %26 = zext i16 %25 to i32
  %27 = load i32, ptr @ett_openflow_v5_instruction, align 4
  %28 = call ptr @proto_tree_add_subtree(ptr noundef %22, ptr noundef %23, i32 noundef %24, i32 noundef %26, i32 noundef %27, ptr noundef null, ptr noundef @.str.1460)
  store ptr %28, ptr %11, align 8
  %29 = load ptr, ptr %6, align 8
  %30 = load ptr, ptr %7, align 8
  %31 = load ptr, ptr %11, align 8
  %32 = load i32, ptr %9, align 4
  %33 = load i16, ptr %10, align 2
  %34 = call i32 @dissect_openflow_instruction_header_v5(ptr noundef %29, ptr noundef %30, ptr noundef %31, i32 noundef %32, i16 noundef zeroext %33)
  store i32 %34, ptr %9, align 4
  %35 = load i16, ptr %13, align 2
  %36 = zext i16 %35 to i32
  %37 = icmp slt i32 %36, 8
  br i1 %37, label %38, label %39

38:                                               ; preds = %5
  store i16 8, ptr %13, align 2
  br label %39

39:                                               ; preds = %38, %5
  %40 = load i16, ptr %12, align 2
  %41 = zext i16 %40 to i32
  switch i32 %41, label %136 [
    i32 1, label %42
    i32 2, label %57
    i32 3, label %79
    i32 4, label %79
    i32 5, label %79
    i32 6, label %104
    i32 65535, label %112
  ]

42:                                               ; preds = %39
  %43 = load ptr, ptr %11, align 8
  %44 = load i32, ptr @hf_openflow_v5_instruction_goto_table_table_id, align 4
  %45 = load ptr, ptr %6, align 8
  %46 = load i32, ptr %9, align 4
  %47 = call ptr @proto_tree_add_item(ptr noundef %43, i32 noundef %44, ptr noundef %45, i32 noundef %46, i32 noundef 1, i32 noundef 0)
  %48 = load i32, ptr %9, align 4
  %49 = add i32 %48, 1
  store i32 %49, ptr %9, align 4
  %50 = load ptr, ptr %11, align 8
  %51 = load i32, ptr @hf_openflow_v5_instruction_goto_table_pad, align 4
  %52 = load ptr, ptr %6, align 8
  %53 = load i32, ptr %9, align 4
  %54 = call ptr @proto_tree_add_item(ptr noundef %50, i32 noundef %51, ptr noundef %52, i32 noundef %53, i32 noundef 3, i32 noundef 0)
  %55 = load i32, ptr %9, align 4
  %56 = add i32 %55, 3
  store i32 %56, ptr %9, align 4
  br label %160

57:                                               ; preds = %39
  %58 = load ptr, ptr %11, align 8
  %59 = load i32, ptr @hf_openflow_v5_instruction_write_metadata_pad, align 4
  %60 = load ptr, ptr %6, align 8
  %61 = load i32, ptr %9, align 4
  %62 = call ptr @proto_tree_add_item(ptr noundef %58, i32 noundef %59, ptr noundef %60, i32 noundef %61, i32 noundef 4, i32 noundef 0)
  %63 = load i32, ptr %9, align 4
  %64 = add i32 %63, 4
  store i32 %64, ptr %9, align 4
  %65 = load ptr, ptr %11, align 8
  %66 = load i32, ptr @hf_openflow_v5_instruction_write_metadata_value, align 4
  %67 = load ptr, ptr %6, align 8
  %68 = load i32, ptr %9, align 4
  %69 = call ptr @proto_tree_add_item(ptr noundef %65, i32 noundef %66, ptr noundef %67, i32 noundef %68, i32 noundef 8, i32 noundef 0)
  %70 = load i32, ptr %9, align 4
  %71 = add i32 %70, 8
  store i32 %71, ptr %9, align 4
  %72 = load ptr, ptr %11, align 8
  %73 = load i32, ptr @hf_openflow_v5_instruction_write_metadata_mask, align 4
  %74 = load ptr, ptr %6, align 8
  %75 = load i32, ptr %9, align 4
  %76 = call ptr @proto_tree_add_item(ptr noundef %72, i32 noundef %73, ptr noundef %74, i32 noundef %75, i32 noundef 8, i32 noundef 0)
  %77 = load i32, ptr %9, align 4
  %78 = add i32 %77, 8
  store i32 %78, ptr %9, align 4
  br label %160

79:                                               ; preds = %39, %39, %39
  %80 = load ptr, ptr %11, align 8
  %81 = load i32, ptr @hf_openflow_v5_instruction_actions_pad, align 4
  %82 = load ptr, ptr %6, align 8
  %83 = load i32, ptr %9, align 4
  %84 = call ptr @proto_tree_add_item(ptr noundef %80, i32 noundef %81, ptr noundef %82, i32 noundef %83, i32 noundef 4, i32 noundef 0)
  %85 = load i32, ptr %9, align 4
  %86 = add i32 %85, 4
  store i32 %86, ptr %9, align 4
  %87 = load i32, ptr %9, align 4
  %88 = load i16, ptr %13, align 2
  %89 = zext i16 %88 to i32
  %90 = add i32 %87, %89
  %91 = sub i32 %90, 8
  store i32 %91, ptr %14, align 4
  br label %92

92:                                               ; preds = %96, %79
  %93 = load i32, ptr %9, align 4
  %94 = load i32, ptr %14, align 4
  %95 = icmp slt i32 %93, %94
  br i1 %95, label %96, label %103

96:                                               ; preds = %92
  %97 = load ptr, ptr %6, align 8
  %98 = load ptr, ptr %7, align 8
  %99 = load ptr, ptr %11, align 8
  %100 = load i32, ptr %9, align 4
  %101 = load i16, ptr %10, align 2
  %102 = call i32 @dissect_openflow_action_v5(ptr noundef %97, ptr noundef %98, ptr noundef %99, i32 noundef %100, i16 noundef zeroext %101)
  store i32 %102, ptr %9, align 4
  br label %92, !llvm.loop !35

103:                                              ; preds = %92
  br label %160

104:                                              ; preds = %39
  %105 = load ptr, ptr %11, align 8
  %106 = load i32, ptr @hf_openflow_v5_instruction_meter_meter_id, align 4
  %107 = load ptr, ptr %6, align 8
  %108 = load i32, ptr %9, align 4
  %109 = call ptr @proto_tree_add_item(ptr noundef %105, i32 noundef %106, ptr noundef %107, i32 noundef %108, i32 noundef 4, i32 noundef 0)
  %110 = load i32, ptr %9, align 4
  %111 = add i32 %110, 4
  store i32 %111, ptr %9, align 4
  br label %160

112:                                              ; preds = %39
  %113 = load i16, ptr %13, align 2
  %114 = zext i16 %113 to i32
  %115 = icmp sle i32 %114, 8
  br i1 %115, label %116, label %122

116:                                              ; preds = %112
  %117 = load ptr, ptr %7, align 8
  %118 = load ptr, ptr %11, align 8
  %119 = call ptr @expert_add_info(ptr noundef %117, ptr noundef %118, ptr noundef @ei_openflow_v5_length_too_short)
  %120 = load i16, ptr %10, align 2
  %121 = zext i16 %120 to i32
  store i32 %121, ptr %9, align 4
  br label %160

122:                                              ; preds = %112
  %123 = load ptr, ptr %11, align 8
  %124 = load ptr, ptr %7, align 8
  %125 = load ptr, ptr %6, align 8
  %126 = load i32, ptr %9, align 4
  %127 = load i16, ptr %13, align 2
  %128 = zext i16 %127 to i32
  %129 = sub i32 %128, 8
  %130 = call ptr (ptr, ptr, ptr, ptr, i32, i32, ptr, ...) @proto_tree_add_expert_format(ptr noundef %123, ptr noundef %124, ptr noundef @ei_openflow_v5_instruction_undecoded, ptr noundef %125, i32 noundef %126, i32 noundef %129, ptr noundef @.str.1461)
  %131 = load i16, ptr %13, align 2
  %132 = zext i16 %131 to i32
  %133 = sub i32 %132, 8
  %134 = load i32, ptr %9, align 4
  %135 = add i32 %134, %133
  store i32 %135, ptr %9, align 4
  br label %160

136:                                              ; preds = %39
  %137 = load i16, ptr %13, align 2
  %138 = zext i16 %137 to i32
  %139 = icmp sle i32 %138, 4
  br i1 %139, label %140, label %146

140:                                              ; preds = %136
  %141 = load ptr, ptr %7, align 8
  %142 = load ptr, ptr %11, align 8
  %143 = call ptr @expert_add_info(ptr noundef %141, ptr noundef %142, ptr noundef @ei_openflow_v5_length_too_short)
  %144 = load i16, ptr %10, align 2
  %145 = zext i16 %144 to i32
  store i32 %145, ptr %9, align 4
  br label %160

146:                                              ; preds = %136
  %147 = load ptr, ptr %11, align 8
  %148 = load ptr, ptr %7, align 8
  %149 = load ptr, ptr %6, align 8
  %150 = load i32, ptr %9, align 4
  %151 = load i16, ptr %13, align 2
  %152 = zext i16 %151 to i32
  %153 = sub i32 %152, 4
  %154 = call ptr (ptr, ptr, ptr, ptr, i32, i32, ptr, ...) @proto_tree_add_expert_format(ptr noundef %147, ptr noundef %148, ptr noundef @ei_openflow_v5_instruction_undecoded, ptr noundef %149, i32 noundef %150, i32 noundef %153, ptr noundef @.str.959)
  %155 = load i16, ptr %13, align 2
  %156 = zext i16 %155 to i32
  %157 = sub i32 %156, 4
  %158 = load i32, ptr %9, align 4
  %159 = add i32 %158, %157
  store i32 %159, ptr %9, align 4
  br label %160

160:                                              ; preds = %146, %140, %122, %116, %104, %103, %57, %42
  %161 = load i32, ptr %9, align 4
  call void @llvm.lifetime.end.p0(i64 4, ptr %14) #5
  call void @llvm.lifetime.end.p0(i64 2, ptr %13) #5
  call void @llvm.lifetime.end.p0(i64 2, ptr %12) #5
  call void @llvm.lifetime.end.p0(i64 8, ptr %11) #5
  ret i32 %161
}