; Function Attrs: null_pointer_is_valid sspstrong uwtable
define internal fastcc range(i32 -2147483647, -2147483648) i32 @dissect_openflow_instruction_v5(ptr noundef %0, ptr noundef %1, ptr noundef %2, i32 noundef range(i32 -2147483648, 131069) %3, i16 noundef zeroext %4) unnamed_addr #0 {
  %6 = tail call zeroext i16 @tvb_get_ntohs(ptr noundef %0, i32 noundef %3)
  %7 = add nsw i32 %3, 2
  %8 = tail call zeroext i16 @tvb_get_ntohs(ptr noundef %0, i32 noundef %7)
  %9 = zext i16 %8 to i32
  %10 = load i32, ptr @ett_openflow_v5_instruction, align 4
  %11 = tail call ptr @proto_tree_add_subtree(ptr noundef %2, ptr noundef %0, i32 noundef %3, i32 noundef %9, i32 noundef %10, ptr noundef null, ptr noundef nonnull @.str.1460)
  %12 = tail call zeroext i16 @tvb_get_ntohs(ptr noundef %0, i32 noundef range(i32 -2147483648, 196603) %3)
  %13 = load i32, ptr @hf_openflow_v5_instruction_type, align 4
  %14 = tail call ptr @proto_tree_add_item(ptr noundef %11, i32 noundef %13, ptr noundef %0, i32 noundef range(i32 -2147483648, 196603) %3, i32 noundef 2, i32 noundef 0)
  %15 = load i32, ptr @hf_openflow_v5_instruction_length, align 4
  %16 = tail call ptr @proto_tree_add_item(ptr noundef %11, i32 noundef %15, ptr noundef %0, i32 noundef %7, i32 noundef 2, i32 noundef 0)
  %17 = add nsw i32 %3, 4
  %18 = icmp eq i16 %12, -1
  br i1 %18, label %19, label %dissect_openflow_instruction_header_v5.exit

19:                                               ; preds = %5
  %20 = load i32, ptr @hf_openflow_v5_instruction_experimenter_experimenter, align 4
  %21 = tail call ptr @proto_tree_add_item(ptr noundef %11, i32 noundef %20, ptr noundef %0, i32 noundef %17, i32 noundef 4, i32 noundef 0)
  %22 = add nsw i32 %3, 8
  br label %dissect_openflow_instruction_header_v5.exit

dissect_openflow_instruction_header_v5.exit:      ; preds = %5, %19
  %.0.i = phi i32 [ %22, %19 ], [ %17, %5 ]
  %spec.store.select = tail call i16 @llvm.umax.i16(i16 %8, i16 8)
  switch i16 %6, label %64 [
    i16 1, label %23
    i16 2, label %30
    i16 3, label %40
    i16 4, label %40
    i16 5, label %40
    i16 6, label %50
    i16 -1, label %54
  ]

23:                                               ; preds = %dissect_openflow_instruction_header_v5.exit
  %24 = load i32, ptr @hf_openflow_v5_instruction_goto_table_table_id, align 4
  %25 = tail call ptr @proto_tree_add_item(ptr noundef %11, i32 noundef %24, ptr noundef %0, i32 noundef %.0.i, i32 noundef 1, i32 noundef 0)
  %26 = add nsw i32 %.0.i, 1
  %27 = load i32, ptr @hf_openflow_v5_instruction_goto_table_pad, align 4
  %28 = tail call ptr @proto_tree_add_item(ptr noundef %11, i32 noundef %27, ptr noundef %0, i32 noundef %26, i32 noundef 3, i32 noundef 0)
  %29 = add nsw i32 %.0.i, 4
  br label %.loopexit

30:                                               ; preds = %dissect_openflow_instruction_header_v5.exit
  %31 = load i32, ptr @hf_openflow_v5_instruction_write_metadata_pad, align 4
  %32 = tail call ptr @proto_tree_add_item(ptr noundef %11, i32 noundef %31, ptr noundef %0, i32 noundef %.0.i, i32 noundef 4, i32 noundef 0)
  %33 = add nsw i32 %.0.i, 4
  %34 = load i32, ptr @hf_openflow_v5_instruction_write_metadata_value, align 4
  %35 = tail call ptr @proto_tree_add_item(ptr noundef %11, i32 noundef %34, ptr noundef %0, i32 noundef %33, i32 noundef 8, i32 noundef 0)
  %36 = add nsw i32 %.0.i, 12
  %37 = load i32, ptr @hf_openflow_v5_instruction_write_metadata_mask, align 4
  %38 = tail call ptr @proto_tree_add_item(ptr noundef %11, i32 noundef %37, ptr noundef %0, i32 noundef %36, i32 noundef 8, i32 noundef 0)
  %39 = add nsw i32 %.0.i, 20
  br label %.loopexit

40:                                               ; preds = %dissect_openflow_instruction_header_v5.exit, %dissect_openflow_instruction_header_v5.exit, %dissect_openflow_instruction_header_v5.exit
  %41 = load i32, ptr @hf_openflow_v5_instruction_actions_pad, align 4
  %42 = tail call ptr @proto_tree_add_item(ptr noundef %11, i32 noundef %41, ptr noundef %0, i32 noundef %.0.i, i32 noundef 4, i32 noundef 0)
  %43 = add nsw i32 %.0.i, 4
  %44 = zext i16 %spec.store.select to i32
  %45 = add nsw i32 %44, -8
  %46 = add nsw i32 %45, %43
  %47 = icmp ugt i16 %8, 8
  br i1 %47, label %.lr.ph, label %.loopexit

.lr.ph:                                           ; preds = %40, %.lr.ph
  %.176 = phi i32 [ %48, %.lr.ph ], [ %43, %40 ]
  %48 = tail call fastcc i32 @dissect_openflow_action_v5(ptr noundef %0, ptr noundef %1, ptr noundef %11, i32 noundef %.176, i16 noundef zeroext %4)
  %49 = icmp slt i32 %48, %46
  br i1 %49, label %.lr.ph, label %.loopexit, !llvm.loop !42

50:                                               ; preds = %dissect_openflow_instruction_header_v5.exit
  %51 = load i32, ptr @hf_openflow_v5_instruction_meter_meter_id, align 4
  %52 = tail call ptr @proto_tree_add_item(ptr noundef %11, i32 noundef %51, ptr noundef %0, i32 noundef %.0.i, i32 noundef 4, i32 noundef 0)
  %53 = add nsw i32 %.0.i, 4
  br label %.loopexit

54:                                               ; preds = %dissect_openflow_instruction_header_v5.exit
  %55 = icmp ult i16 %8, 9
  br i1 %55, label %56, label %59

56:                                               ; preds = %54
  %57 = tail call ptr @expert_add_info(ptr noundef %1, ptr noundef %11, ptr noundef nonnull @ei_openflow_v5_length_too_short)
  %58 = zext i16 %4 to i32
  br label %.loopexit

59:                                               ; preds = %54
  %60 = zext i16 %spec.store.select to i32
  %61 = add nsw i32 %60, -8
  %62 = tail call ptr (ptr, ptr, ptr, ptr, i32, i32, ptr, ...) @proto_tree_add_expert_format(ptr noundef %11, ptr noundef %1, ptr noundef nonnull @ei_openflow_v5_instruction_undecoded, ptr noundef %0, i32 noundef %.0.i, i32 noundef %61, ptr noundef nonnull @.str.1461)
  %63 = add nsw i32 %.0.i, %61
  br label %.loopexit

64:                                               ; preds = %dissect_openflow_instruction_header_v5.exit
  %65 = zext i16 %spec.store.select to i32
  %66 = add nsw i32 %65, -4
  %67 = tail call ptr (ptr, ptr, ptr, ptr, i32, i32, ptr, ...) @proto_tree_add_expert_format(ptr noundef %11, ptr noundef %1, ptr noundef nonnull @ei_openflow_v5_instruction_undecoded, ptr noundef %0, i32 noundef %.0.i, i32 noundef %66, ptr noundef nonnull @.str.959)
  %68 = add nsw i32 %.0.i, %66
  br label %.loopexit

.loopexit:                                        ; preds = %.lr.ph, %40, %64, %59, %56, %50, %30, %23
  %.0 = phi i32 [ %68, %64 ], [ %58, %56 ], [ %63, %59 ], [ %53, %50 ], [ %39, %30 ], [ %29, %23 ], [ %43, %40 ], [ %48, %.lr.ph ]
  ret i32 %.0
}